target datalayout = "e-m:e-p270:32:32-p271:32:32-p272:64:64-i64:64-i128:128-f80:128-n8:16:32:64-S128"
target triple = "x86_64-pc-linux-gnu"

%struct.SDF_Renderer_Module_ = type { %struct.FT_RendererRec_, i32, i8, i8, i8 }
%struct.FT_RendererRec_ = type { %struct.FT_ModuleRec_, ptr, i32, %struct.FT_Glyph_Class_, ptr, ptr, ptr }
%struct.FT_ModuleRec_ = type { ptr, ptr, ptr }
%struct.FT_Glyph_Class_ = type { i64, i32, ptr, ptr, ptr, ptr, ptr, ptr }

@.str.5 = private unnamed_addr constant [7 x i8] c"spread\00", align 1
@.str.6 = private unnamed_addr constant [10 x i8] c"flip_sign\00", align 1
@.str.7 = private unnamed_addr constant [7 x i8] c"flip_y\00", align 1
@.str.8 = private unnamed_addr constant [9 x i8] c"overlaps\00", align 1

; Function Attrs: nounwind uwtable
define internal i32 @sdf_property_get(ptr noundef %0, ptr noundef %1, ptr noundef %2) #0 {
  %4 = alloca ptr, align 8
  %5 = alloca ptr, align 8
  %6 = alloca ptr, align 8
  %7 = alloca i32, align 4
  %8 = alloca ptr, align 8
  %9 = alloca ptr, align 8
  %10 = alloca ptr, align 8
  %11 = alloca ptr, align 8
  %12 = alloca ptr, align 8
  store ptr %0, ptr %4, align 8, !tbaa !3
  store ptr %1, ptr %5, align 8, !tbaa !25
  store ptr %2, ptr %6, align 8, !tbaa !85
  call void @llvm.lifetime.start.p0(i64 4, ptr %7) #7
  store i32 0, ptr %7, align 4, !tbaa !31
  call void @llvm.lifetime.start.p0(i64 8, ptr %8) #7
  %13 = load ptr, ptr %4, align 8, !tbaa !3
  store ptr %13, ptr %8, align 8, !tbaa !8
  %14 = load ptr, ptr %5, align 8, !tbaa !25
  %15 = call i32 @strcmp(ptr noundef %14, ptr noundef @.str.5) #8
  %16 = icmp eq i32 %15, 0
  br i1 %16, label %17, label %23

17:                                               ; preds = %3
  call void @llvm.lifetime.start.p0(i64 8, ptr %9) #7
  %18 = load ptr, ptr %6, align 8, !tbaa !85
  store ptr %18, ptr %9, align 8, !tbaa !132
  %19 = load ptr, ptr %8, align 8, !tbaa !8
  %20 = getelementptr inbounds nuw %struct.SDF_Renderer_Module_, ptr %19, i32 0, i32 1
  %21 = load i32, ptr %20, align 8, !tbaa !10
  %22 = load ptr, ptr %9, align 8, !tbaa !132
  store i32 %21, ptr %22, align 4, !tbaa !31
  call void @llvm.lifetime.end.p0(i64 8, ptr %9) #7
  br label %63

23:                                               ; preds = %3
  %24 = load ptr, ptr %5, align 8, !tbaa !25
  %25 = call i32 @strcmp(ptr noundef %24, ptr noundef @.str.6) #8
  %26 = icmp eq i32 %25, 0
  br i1 %26, label %27, label %34

27:                                               ; preds = %23
  call void @llvm.lifetime.start.p0(i64 8, ptr %10) #7
  %28 = load ptr, ptr %6, align 8, !tbaa !85
  store ptr %28, ptr %10, align 8, !tbaa !132
  %29 = load ptr, ptr %8, align 8, !tbaa !8
  %30 = getelementptr inbounds nuw %struct.SDF_Renderer_Module_, ptr %29, i32 0, i32 2
  %31 = load i8, ptr %30, align 4, !tbaa !22
  %32 = zext i8 %31 to i32
  %33 = load ptr, ptr %10, align 8, !tbaa !132
  store i32 %32, ptr %33, align 4, !tbaa !31
  call void @llvm.lifetime.end.p0(i64 8, ptr %10) #7
  br label %62

34:                                               ; preds = %23
  %35 = load ptr, ptr %5, align 8, !tbaa !25
  %36 = call i32 @strcmp(ptr noundef %35, ptr noundef @.str.7) #8
  %37 = icmp eq i32 %36, 0
  br i1 %37, label %38, label %45

38:                                               ; preds = %34
  call void @llvm.lifetime.start.p0(i64 8, ptr %11) #7
  %39 = load ptr, ptr %6, align 8, !tbaa !85
  store ptr %39, ptr %11, align 8, !tbaa !132
  %40 = load ptr, ptr %8, align 8, !tbaa !8
  %41 = getelementptr inbounds nuw %struct.SDF_Renderer_Module_, ptr %40, i32 0, i32 3
  %42 = load i8, ptr %41, align 1, !tbaa !23
  %43 = zext i8 %42 to i32
  %44 = load ptr, ptr %11, align 8, !tbaa !132
  store i32 %43, ptr %44, align 4, !tbaa !31
  call void @llvm.lifetime.end.p0(i64 8, ptr %11) #7
  br label %61

45:                                               ; preds = %34
  %46 = load ptr, ptr %5, align 8, !tbaa !25
  %47 = call i32 @strcmp(ptr noundef %46, ptr noundef @.str.8) #8
  %48 = icmp eq i32 %47, 0
  br i1 %48, label %49, label %56

49:                                               ; preds = %45
  call void @llvm.lifetime.start.p0(i64 8, ptr %12) #7
  %50 = load ptr, ptr %6, align 8, !tbaa !85
  store ptr %50, ptr %12, align 8, !tbaa !132
  %51 = load ptr, ptr %8, align 8, !tbaa !8
  %52 = getelementptr inbounds nuw %struct.SDF_Renderer_Module_, ptr %51, i32 0, i32 4
  %53 = load i8, ptr %52, align 2, !tbaa !24
  %54 = zext i8 %53 to i32
  %55 = load ptr, ptr %12, align 8, !tbaa !132
  store i32 %54, ptr %55, align 4, !tbaa !31
  call void @llvm.lifetime.end.p0(i64 8, ptr %12) #7
  br label %60

56:                                               ; preds = %45
  br label %57

57:                                               ; preds = %56
  br label %58

58:                                               ; preds = %57
  br label %59

59:                                               ; preds = %58
  store i32 12, ptr %7, align 4, !tbaa !31
  br label %60

60:                                               ; preds = %59, %49
  br label %61

61:                                               ; preds = %60, %38
  br label %62

62:                                               ; preds = %61, %27
  br label %63

63:                                               ; preds = %62, %17
  %64 = load i32, ptr %7, align 4, !tbaa !31
  call void @llvm.lifetime.end.p0(i64 8, ptr %8) #7
  call void @llvm.lifetime.end.p0(i64 4, ptr %7) #7
  ret i32 %64
}