; Function Attrs: mustprogress nofree nounwind willreturn memory(argmem: readwrite) uwtable
define internal range(i32 0, 13) i32 @sdf_property_get(ptr noundef readonly captures(none) %0, ptr noundef readonly captures(none) %1, ptr noundef writeonly captures(none) %2) #5 {
  %4 = tail call i32 @strcmp(ptr noundef nonnull dereferenceable(1) %1, ptr noundef nonnull dereferenceable(7) @.str.5) #12
  %5 = icmp eq i32 %4, 0
  br i1 %5, label %6, label %9

6:                                                ; preds = %3
  %7 = getelementptr inbounds nuw i8, ptr %0, i64 128
  %8 = load i32, ptr %7, align 8, !tbaa !3
  br label %.sink.split

9:                                                ; preds = %3
  %10 = tail call i32 @strcmp(ptr noundef nonnull dereferenceable(1) %1, ptr noundef nonnull dereferenceable(10) @.str.6) #12
  %11 = icmp eq i32 %10, 0
  br i1 %11, label %12, label %16

12:                                               ; preds = %9
  %13 = getelementptr inbounds nuw i8, ptr %0, i64 132
  %14 = load i8, ptr %13, align 4, !tbaa !18
  %15 = zext i8 %14 to i32
  br label %.sink.split

16:                                               ; preds = %9
  %17 = tail call i32 @strcmp(ptr noundef nonnull dereferenceable(1) %1, ptr noundef nonnull dereferenceable(7) @.str.7) #12
  %18 = icmp eq i32 %17, 0
  br i1 %18, label %19, label %23

19:                                               ; preds = %16
  %20 = getelementptr inbounds nuw i8, ptr %0, i64 133
  %21 = load i8, ptr %20, align 1, !tbaa !19
  %22 = zext i8 %21 to i32
  br label %.sink.split

23:                                               ; preds = %16
  %24 = tail call i32 @strcmp(ptr noundef nonnull dereferenceable(1) %1, ptr noundef nonnull dereferenceable(9) @.str.8) #12
  %25 = icmp eq i32 %24, 0
  br i1 %25, label %26, label %30

26:                                               ; preds = %23
  %27 = getelementptr inbounds nuw i8, ptr %0, i64 134
  %28 = load i8, ptr %27, align 2, !tbaa !20
  %29 = zext i8 %28 to i32
  br label %.sink.split

.sink.split:                                      ; preds = %6, %19, %26, %12
  %.sink = phi i32 [ %15, %12 ], [ %29, %26 ], [ %22, %19 ], [ %8, %6 ]
  store i32 %.sink, ptr %2, align 4, !tbaa !21
  br label %30

30:                                               ; preds = %.sink.split, %23
  %.0 = phi i32 [ 12, %23 ], [ 0, %.sink.split ]
  ret i32 %.0
}